target datalayout = "e-m:e-p270:32:32-p271:32:32-p272:64:64-i64:64-i128:128-f80:128-n8:16:32:64-S128"
target triple = "x86_64-unknown-linux-gnu"

%class.ptr_vector = type { %class.vector }
%class.vector = type { ptr }
%"struct.q::instruction" = type { i32, ptr }
%"class.q::interpreter" = type { ptr, ptr, ptr, i8, %class.ptr_vector, %class.ptr_vector, %class.ptr_vector, %class.svector, i32, ptr, i32, i32, i32, i32, ptr, ptr, ptr, ptr, %class.ptr_vector, %class.svector.2, %class.svector.2, %class.pool }
%class.svector = type { %class.vector.1 }
%class.vector.1 = type { ptr }
%class.svector.2 = type { %class.vector.3 }
%class.vector.3 = type { ptr }
%class.pool = type { %class.ptr_vector.4 }
%class.ptr_vector.4 = type { %class.vector.5 }
%class.vector.5 = type { ptr }
%"struct.q::choose" = type { %"struct.q::instruction", ptr }

@.str.29 = private unnamed_addr constant [2 x i8] c"\0A\00", align 1
@.str.30 = private unnamed_addr constant [12 x i8] c"executing: \00", align 1
@.str.31 = private unnamed_addr constant [7 x i8] c"m_pc: \00", align 1
@.str.32 = private unnamed_addr constant [9 x i8] c", next: \00", align 1
@.str.33 = private unnamed_addr constant [8 x i8] c", alt: \00", align 1

; Function Attrs: mustprogress uwtable
define hidden void @_ZN1q11interpreter15display_pc_infoERSo(ptr noundef nonnull align 8 dereferenceable(160) %this, ptr noundef nonnull align 8 dereferenceable(8) %out) #5 align 2 {
entry:
  %this.addr = alloca ptr, align 8
  %out.addr = alloca ptr, align 8
  store ptr %this, ptr %this.addr, align 8
  store ptr %out, ptr %out.addr, align 8
  %this1 = load ptr, ptr %this.addr, align 8
  %0 = load ptr, ptr %out.addr, align 8
  %call = call noundef nonnull align 8 dereferenceable(8) ptr @_ZStlsISt11char_traitsIcEERSt13basic_ostreamIcT_ES5_PKc(ptr noundef nonnull align 8 dereferenceable(8) %0, ptr noundef @.str.30)
  %m_pc = getelementptr inbounds %"class.q::interpreter", ptr %this1, i32 0, i32 9
  %1 = load ptr, ptr %m_pc, align 8
  %call2 = call noundef nonnull align 8 dereferenceable(8) ptr @_ZN1qlsERSoRKNS_11instructionE(ptr noundef nonnull align 8 dereferenceable(8) %call, ptr noundef nonnull align 8 dereferenceable(16) %1)
  %call3 = call noundef nonnull align 8 dereferenceable(8) ptr @_ZStlsISt11char_traitsIcEERSt13basic_ostreamIcT_ES5_PKc(ptr noundef nonnull align 8 dereferenceable(8) %call2, ptr noundef @.str.29)
  %2 = load ptr, ptr %out.addr, align 8
  %call4 = call noundef nonnull align 8 dereferenceable(8) ptr @_ZStlsISt11char_traitsIcEERSt13basic_ostreamIcT_ES5_PKc(ptr noundef nonnull align 8 dereferenceable(8) %2, ptr noundef @.str.31)
  %m_pc5 = getelementptr inbounds %"class.q::interpreter", ptr %this1, i32 0, i32 9
  %3 = load ptr, ptr %m_pc5, align 8
  %call6 = call noundef nonnull align 8 dereferenceable(8) ptr @_ZNSolsEPKv(ptr noundef nonnull align 8 dereferenceable(8) %call4, ptr noundef %3)
  %call7 = call noundef nonnull align 8 dereferenceable(8) ptr @_ZStlsISt11char_traitsIcEERSt13basic_ostreamIcT_ES5_PKc(ptr noundef nonnull align 8 dereferenceable(8) %call6, ptr noundef @.str.32)
  %m_pc8 = getelementptr inbounds %"class.q::interpreter", ptr %this1, i32 0, i32 9
  %4 = load ptr, ptr %m_pc8, align 8
  %m_next = getelementptr inbounds %"struct.q::instruction", ptr %4, i32 0, i32 1
  %5 = load ptr, ptr %m_next, align 8
  %call9 = call noundef nonnull align 8 dereferenceable(8) ptr @_ZNSolsEPKv(ptr noundef nonnull align 8 dereferenceable(8) %call7, ptr noundef %5)
  %m_pc10 = getelementptr inbounds %"class.q::interpreter", ptr %this1, i32 0, i32 9
  %6 = load ptr, ptr %m_pc10, align 8
  %m_opcode = getelementptr inbounds %"struct.q::instruction", ptr %6, i32 0, i32 0
  %7 = load i32, ptr %m_opcode, align 8
  %cmp = icmp eq i32 %7, 26
  br i1 %cmp, label %if.then, label %if.end

if.then:                                          ; preds = %entry
  %8 = load ptr, ptr %out.addr, align 8
  %call11 = call noundef nonnull align 8 dereferenceable(8) ptr @_ZStlsISt11char_traitsIcEERSt13basic_ostreamIcT_ES5_PKc(ptr noundef nonnull align 8 dereferenceable(8) %8, ptr noundef @.str.33)
  %m_pc12 = getelementptr inbounds %"class.q::interpreter", ptr %this1, i32 0, i32 9
  %9 = load ptr, ptr %m_pc12, align 8
  %m_alt = getelementptr inbounds %"struct.q::choose", ptr %9, i32 0, i32 1
  %10 = load ptr, ptr %m_alt, align 8
  %call13 = call noundef nonnull align 8 dereferenceable(8) ptr @_ZNSolsEPKv(ptr noundef nonnull align 8 dereferenceable(8) %call11, ptr noundef %10)
  br label %if.end

if.end:                                           ; preds = %if.then, %entry
  %11 = load ptr, ptr %out.addr, align 8
  %call14 = call noundef nonnull align 8 dereferenceable(8) ptr @_ZStlsISt11char_traitsIcEERSt13basic_ostreamIcT_ES5_PKc(ptr noundef nonnull align 8 dereferenceable(8) %11, ptr noundef @.str.29)
  %12 = load ptr, ptr %out.addr, align 8
  %m_pc15 = getelementptr inbounds %"class.q::interpreter", ptr %this1, i32 0, i32 9
  %13 = load ptr, ptr %m_pc15, align 8
  call void @_ZN1q11interpreter23display_instr_input_regERSoPKNS_11instructionE(ptr noundef nonnull align 8 dereferenceable(160) %this1, ptr noundef nonnull align 8 dereferenceable(8) %12, ptr noundef %13)
  ret void
}