; Function Attrs: mustprogress uwtable
define hidden void @_ZN1q11interpreter15display_pc_infoERSo(ptr nocapture noundef nonnull readonly align 8 dereferenceable(160) %this, ptr noundef nonnull align 8 dereferenceable(8) %out) local_unnamed_addr #4 align 2 {
entry:
  %call = tail call noundef nonnull align 8 dereferenceable(8) ptr @_ZStlsISt11char_traitsIcEERSt13basic_ostreamIcT_ES5_PKc(ptr noundef nonnull align 8 dereferenceable(8) %out, ptr noundef nonnull @.str.30)
  %m_pc = getelementptr inbounds i8, ptr %this, i64 72
  %0 = load ptr, ptr %m_pc, align 8
  %call2 = tail call noundef nonnull align 8 dereferenceable(8) ptr @_ZN1qlsERSoRKNS_11instructionE(ptr noundef nonnull align 8 dereferenceable(8) %call, ptr noundef nonnull align 8 dereferenceable(16) %0)
  %call3 = tail call noundef nonnull align 8 dereferenceable(8) ptr @_ZStlsISt11char_traitsIcEERSt13basic_ostreamIcT_ES5_PKc(ptr noundef nonnull align 8 dereferenceable(8) %call, ptr noundef nonnull @.str.29)
  %call4 = tail call noundef nonnull align 8 dereferenceable(8) ptr @_ZStlsISt11char_traitsIcEERSt13basic_ostreamIcT_ES5_PKc(ptr noundef nonnull align 8 dereferenceable(8) %out, ptr noundef nonnull @.str.31)
  %1 = load ptr, ptr %m_pc, align 8
  %call6 = tail call noundef nonnull align 8 dereferenceable(8) ptr @_ZNSolsEPKv(ptr noundef nonnull align 8 dereferenceable(8) %call4, ptr noundef %1)
  %call7 = tail call noundef nonnull align 8 dereferenceable(8) ptr @_ZStlsISt11char_traitsIcEERSt13basic_ostreamIcT_ES5_PKc(ptr noundef nonnull align 8 dereferenceable(8) %call6, ptr noundef nonnull @.str.32)
  %2 = load ptr, ptr %m_pc, align 8
  %m_next = getelementptr inbounds i8, ptr %2, i64 8
  %3 = load ptr, ptr %m_next, align 8
  %call9 = tail call noundef nonnull align 8 dereferenceable(8) ptr @_ZNSolsEPKv(ptr noundef nonnull align 8 dereferenceable(8) %call7, ptr noundef %3)
  %4 = load ptr, ptr %m_pc, align 8
  %5 = load i32, ptr %4, align 8
  %cmp = icmp eq i32 %5, 26
  br i1 %cmp, label %if.then, label %if.end

if.then:                                          ; preds = %entry
  %call11 = tail call noundef nonnull align 8 dereferenceable(8) ptr @_ZStlsISt11char_traitsIcEERSt13basic_ostreamIcT_ES5_PKc(ptr noundef nonnull align 8 dereferenceable(8) %out, ptr noundef nonnull @.str.33)
  %6 = load ptr, ptr %m_pc, align 8
  %m_alt = getelementptr inbounds i8, ptr %6, i64 16
  %7 = load ptr, ptr %m_alt, align 8
  %call13 = tail call noundef nonnull align 8 dereferenceable(8) ptr @_ZNSolsEPKv(ptr noundef nonnull align 8 dereferenceable(8) %call11, ptr noundef %7)
  br label %if.end

if.end:                                           ; preds = %if.then, %entry
  %call14 = tail call noundef nonnull align 8 dereferenceable(8) ptr @_ZStlsISt11char_traitsIcEERSt13basic_ostreamIcT_ES5_PKc(ptr noundef nonnull align 8 dereferenceable(8) %out, ptr noundef nonnull @.str.29)
  %8 = load ptr, ptr %m_pc, align 8
  tail call void @_ZN1q11interpreter23display_instr_input_regERSoPKNS_11instructionE(ptr noundef nonnull align 8 dereferenceable(160) %this, ptr noundef nonnull align 8 dereferenceable(8) %out, ptr noundef %8)
  ret void
}